target datalayout = "e-m:e-p270:32:32-p271:32:32-p272:64:64-i64:64-i128:128-f80:128-n8:16:32:64-S128"
target triple = "x86_64-pc-linux-gnu"

%struct.gmx_ana_selvalue_t = type { i32, i32, %union.anon, i32 }
%union.anon = type { ptr }
%struct.methoddata_merge = type { %struct.gmx_ana_pos_t, %struct.gmx_ana_pos_t, i32, [4 x i8] }
%struct.gmx_ana_pos_t = type <{ ptr, ptr, ptr, %struct.gmx_ana_indexmap_t, i32, [4 x i8] }>
%struct.gmx_ana_indexmap_t = type { i32, ptr, ptr, %struct.t_blocka, ptr, %struct.t_blocka, i8 }
%struct.t_blocka = type { i32, ptr, i32, ptr, i32, i32 }

; Function Attrs: mustprogress nounwind uwtable
define linkonce_odr noundef i32 @_ZNK13gmx_ana_pos_t5countEv(ptr noundef nonnull align 8 dereferenceable(148) %0) #1 comdat align 2 {
  %2 = alloca ptr, align 8
  store ptr %0, ptr %2, align 8, !tbaa !33
  %3 = load ptr, ptr %2, align 8
  %4 = getelementptr inbounds nuw %struct.gmx_ana_pos_t, ptr %3, i32 0, i32 3
  %5 = getelementptr inbounds nuw %struct.gmx_ana_indexmap_t, ptr %4, i32 0, i32 3
  %6 = getelementptr inbounds nuw %struct.t_blocka, ptr %5, i32 0, i32 0
  %7 = load i32, ptr %6, align 8, !tbaa !56
  ret i32 %7
}

; Function Attrs: mustprogress uwtable
define internal void @_ZL18init_output_commonPK10gmx_mtop_tP18gmx_ana_selvalue_tPv(ptr noundef %0, ptr noundef %1, ptr noundef %2) #0 {
  %4 = alloca ptr, align 8
  %5 = alloca ptr, align 8
  %6 = alloca ptr, align 8
  %7 = alloca ptr, align 8
  store ptr %0, ptr %4, align 8, !tbaa !23
  store ptr %1, ptr %5, align 8, !tbaa !26
  store ptr %2, ptr %6, align 8, !tbaa !25
  call void @llvm.lifetime.start.p0(i64 8, ptr %7) #18
  %8 = load ptr, ptr %6, align 8, !tbaa !25
  store ptr %8, ptr %7, align 8, !tbaa !11
  %9 = load ptr, ptr %7, align 8, !tbaa !11
  %10 = getelementptr inbounds nuw %struct.methoddata_merge, ptr %9, i32 0, i32 0
  %11 = getelementptr inbounds nuw %struct.gmx_ana_pos_t, ptr %10, i32 0, i32 3
  %12 = getelementptr inbounds nuw %struct.gmx_ana_indexmap_t, ptr %11, i32 0, i32 0
  %13 = load i32, ptr %12, align 8, !tbaa !160
  %14 = load ptr, ptr %7, align 8, !tbaa !11
  %15 = getelementptr inbounds nuw %struct.methoddata_merge, ptr %14, i32 0, i32 1
  %16 = getelementptr inbounds nuw %struct.gmx_ana_pos_t, ptr %15, i32 0, i32 3
  %17 = getelementptr inbounds nuw %struct.gmx_ana_indexmap_t, ptr %16, i32 0, i32 0
  %18 = load i32, ptr %17, align 8, !tbaa !161
  %19 = icmp ne i32 %13, %18
  br i1 %19, label %20, label %26

20:                                               ; preds = %3
  %21 = load ptr, ptr %5, align 8, !tbaa !26
  %22 = getelementptr inbounds nuw %struct.gmx_ana_selvalue_t, ptr %21, i32 0, i32 2
  %23 = load ptr, ptr %22, align 8, !tbaa !22
  %24 = getelementptr inbounds nuw %struct.gmx_ana_pos_t, ptr %23, i32 0, i32 3
  %25 = getelementptr inbounds nuw %struct.gmx_ana_indexmap_t, ptr %24, i32 0, i32 0
  store i32 0, ptr %25, align 8, !tbaa !162
  br label %37

26:                                               ; preds = %3
  %27 = load ptr, ptr %7, align 8, !tbaa !11
  %28 = getelementptr inbounds nuw %struct.methoddata_merge, ptr %27, i32 0, i32 0
  %29 = getelementptr inbounds nuw %struct.gmx_ana_pos_t, ptr %28, i32 0, i32 3
  %30 = getelementptr inbounds nuw %struct.gmx_ana_indexmap_t, ptr %29, i32 0, i32 0
  %31 = load i32, ptr %30, align 8, !tbaa !160
  %32 = load ptr, ptr %5, align 8, !tbaa !26
  %33 = getelementptr inbounds nuw %struct.gmx_ana_selvalue_t, ptr %32, i32 0, i32 2
  %34 = load ptr, ptr %33, align 8, !tbaa !22
  %35 = getelementptr inbounds nuw %struct.gmx_ana_pos_t, ptr %34, i32 0, i32 3
  %36 = getelementptr inbounds nuw %struct.gmx_ana_indexmap_t, ptr %35, i32 0, i32 0
  store i32 %31, ptr %36, align 8, !tbaa !162
  br label %37

37:                                               ; preds = %26, %20
  %38 = load ptr, ptr %5, align 8, !tbaa !26
  %39 = getelementptr inbounds nuw %struct.gmx_ana_selvalue_t, ptr %38, i32 0, i32 2
  %40 = load ptr, ptr %39, align 8, !tbaa !22
  %41 = load ptr, ptr %7, align 8, !tbaa !11
  %42 = getelementptr inbounds nuw %struct.methoddata_merge, ptr %41, i32 0, i32 0
  %43 = call noundef i32 @_ZNK13gmx_ana_pos_t5countEv(ptr noundef nonnull align 8 dereferenceable(148) %42)
  %44 = load ptr, ptr %7, align 8, !tbaa !11
  %45 = getelementptr inbounds nuw %struct.methoddata_merge, ptr %44, i32 0, i32 1
  %46 = call noundef i32 @_ZNK13gmx_ana_pos_t5countEv(ptr noundef nonnull align 8 dereferenceable(148) %45)
  %47 = add nsw i32 %43, %46
  %48 = load ptr, ptr %7, align 8, !tbaa !11
  %49 = getelementptr inbounds nuw %struct.methoddata_merge, ptr %48, i32 0, i32 0
  %50 = getelementptr inbounds nuw %struct.gmx_ana_pos_t, ptr %49, i32 0, i32 3
  %51 = getelementptr inbounds nuw %struct.gmx_ana_indexmap_t, ptr %50, i32 0, i32 5
  %52 = getelementptr inbounds nuw %struct.t_blocka, ptr %51, i32 0, i32 2
  %53 = load i32, ptr %52, align 8, !tbaa !163
  %54 = load ptr, ptr %7, align 8, !tbaa !11
  %55 = getelementptr inbounds nuw %struct.methoddata_merge, ptr %54, i32 0, i32 1
  %56 = getelementptr inbounds nuw %struct.gmx_ana_pos_t, ptr %55, i32 0, i32 3
  %57 = getelementptr inbounds nuw %struct.gmx_ana_indexmap_t, ptr %56, i32 0, i32 5
  %58 = getelementptr inbounds nuw %struct.t_blocka, ptr %57, i32 0, i32 2
  %59 = load i32, ptr %58, align 8, !tbaa !164
  %60 = add nsw i32 %53, %59
  %61 = load ptr, ptr %7, align 8, !tbaa !11
  %62 = getelementptr inbounds nuw %struct.methoddata_merge, ptr %61, i32 0, i32 0
  %63 = getelementptr inbounds nuw %struct.gmx_ana_pos_t, ptr %62, i32 0, i32 1
  %64 = load ptr, ptr %63, align 8, !tbaa !165
  %65 = icmp ne ptr %64, null
  %66 = load ptr, ptr %7, align 8, !tbaa !11
  %67 = getelementptr inbounds nuw %struct.methoddata_merge, ptr %66, i32 0, i32 0
  %68 = getelementptr inbounds nuw %struct.gmx_ana_pos_t, ptr %67, i32 0, i32 2
  %69 = load ptr, ptr %68, align 8, !tbaa !166
  %70 = icmp ne ptr %69, null
  call void @_Z30gmx_ana_pos_reserve_for_appendP13gmx_ana_pos_tiibb(ptr noundef %40, i32 noundef %47, i32 noundef %60, i1 noundef zeroext %65, i1 noundef zeroext %70)
  %71 = load ptr, ptr %5, align 8, !tbaa !26
  %72 = getelementptr inbounds nuw %struct.gmx_ana_selvalue_t, ptr %71, i32 0, i32 2
  %73 = load ptr, ptr %72, align 8, !tbaa !22
  call void @_Z22gmx_ana_pos_empty_initP13gmx_ana_pos_t(ptr noundef %73)
  call void @llvm.lifetime.end.p0(i64 8, ptr %7) #18
  ret void
}

; Function Attrs: mustprogress uwtable
define internal void @_ZL16init_output_plusPK10gmx_mtop_tP18gmx_ana_selvalue_tPv(ptr noundef %0, ptr noundef %1, ptr noundef %2) #0 {
  %4 = alloca ptr, align 8
  %5 = alloca ptr, align 8
  %6 = alloca ptr, align 8
  %7 = alloca ptr, align 8
  %8 = alloca i32, align 4
  store ptr %0, ptr %4, align 8, !tbaa !23
  store ptr %1, ptr %5, align 8, !tbaa !26
  store ptr %2, ptr %6, align 8, !tbaa !25
  call void @llvm.lifetime.start.p0(i64 8, ptr %7) #18
  %9 = load ptr, ptr %6, align 8, !tbaa !25
  store ptr %9, ptr %7, align 8, !tbaa !11
  call void @llvm.lifetime.start.p0(i64 4, ptr %8) #18
  %10 = load ptr, ptr %4, align 8, !tbaa !23
  %11 = load ptr, ptr %5, align 8, !tbaa !26
  %12 = load ptr, ptr %6, align 8, !tbaa !25
  call void @_ZL18init_output_commonPK10gmx_mtop_tP18gmx_ana_selvalue_tPv(ptr noundef %10, ptr noundef %11, ptr noundef %12)
  store i32 0, ptr %8, align 4, !tbaa !4
  br label %13

13:                                               ; preds = %26, %3
  %14 = load i32, ptr %8, align 4, !tbaa !4
  %15 = load ptr, ptr %7, align 8, !tbaa !11
  %16 = getelementptr inbounds nuw %struct.methoddata_merge, ptr %15, i32 0, i32 0
  %17 = call noundef i32 @_ZNK13gmx_ana_pos_t5countEv(ptr noundef nonnull align 8 dereferenceable(148) %16)
  %18 = icmp slt i32 %14, %17
  br i1 %18, label %19, label %29

19:                                               ; preds = %13
  %20 = load ptr, ptr %5, align 8, !tbaa !26
  %21 = getelementptr inbounds nuw %struct.gmx_ana_selvalue_t, ptr %20, i32 0, i32 2
  %22 = load ptr, ptr %21, align 8, !tbaa !22
  %23 = load ptr, ptr %7, align 8, !tbaa !11
  %24 = getelementptr inbounds nuw %struct.methoddata_merge, ptr %23, i32 0, i32 0
  %25 = load i32, ptr %8, align 4, !tbaa !4
  call void @_Z23gmx_ana_pos_append_initP13gmx_ana_pos_tS0_i(ptr noundef %22, ptr noundef %24, i32 noundef %25)
  br label %26

26:                                               ; preds = %19
  %27 = load i32, ptr %8, align 4, !tbaa !4
  %28 = add nsw i32 %27, 1
  store i32 %28, ptr %8, align 4, !tbaa !4
  br label %13, !llvm.loop !167

29:                                               ; preds = %13
  store i32 0, ptr %8, align 4, !tbaa !4
  br label %30

30:                                               ; preds = %43, %29
  %31 = load i32, ptr %8, align 4, !tbaa !4
  %32 = load ptr, ptr %7, align 8, !tbaa !11
  %33 = getelementptr inbounds nuw %struct.methoddata_merge, ptr %32, i32 0, i32 1
  %34 = call noundef i32 @_ZNK13gmx_ana_pos_t5countEv(ptr noundef nonnull align 8 dereferenceable(148) %33)
  %35 = icmp slt i32 %31, %34
  br i1 %35, label %36, label %46

36:                                               ; preds = %30
  %37 = load ptr, ptr %5, align 8, !tbaa !26
  %38 = getelementptr inbounds nuw %struct.gmx_ana_selvalue_t, ptr %37, i32 0, i32 2
  %39 = load ptr, ptr %38, align 8, !tbaa !22
  %40 = load ptr, ptr %7, align 8, !tbaa !11
  %41 = getelementptr inbounds nuw %struct.methoddata_merge, ptr %40, i32 0, i32 1
  %42 = load i32, ptr %8, align 4, !tbaa !4
  call void @_Z23gmx_ana_pos_append_initP13gmx_ana_pos_tS0_i(ptr noundef %39, ptr noundef %41, i32 noundef %42)
  br label %43

43:                                               ; preds = %36
  %44 = load i32, ptr %8, align 4, !tbaa !4
  %45 = add nsw i32 %44, 1
  store i32 %45, ptr %8, align 4, !tbaa !4
  br label %30, !llvm.loop !168

46:                                               ; preds = %30
  call void @llvm.lifetime.end.p0(i64 4, ptr %8) #18
  call void @llvm.lifetime.end.p0(i64 8, ptr %7) #18
  ret void
}