; Function Attrs: mustprogress uwtable
define internal void @_ZL16init_output_plusPK10gmx_mtop_tP18gmx_ana_selvalue_tPv(ptr readnone captures(none) %0, ptr noundef readonly captures(none) %1, ptr noundef %2) #0 {
  %4 = getelementptr inbounds nuw i8, ptr %2, i64 24
  %5 = load i32, ptr %4, align 8, !tbaa !24
  %6 = getelementptr inbounds nuw i8, ptr %2, i64 176
  %7 = load i32, ptr %6, align 8, !tbaa !25
  %.not.i = icmp eq i32 %5, %7
  %8 = getelementptr inbounds nuw i8, ptr %1, i64 8
  %9 = load ptr, ptr %8, align 8, !tbaa !17
  %10 = getelementptr inbounds nuw i8, ptr %9, i64 24
  %..i = select i1 %.not.i, i32 %5, i32 0
  store i32 %..i, ptr %10, align 8, !tbaa !26
  %11 = load ptr, ptr %8, align 8, !tbaa !17
  %12 = getelementptr inbounds nuw i8, ptr %2, i64 48
  %13 = load i32, ptr %12, align 8, !tbaa !23
  %14 = getelementptr inbounds nuw i8, ptr %2, i64 200
  %15 = load i32, ptr %14, align 8, !tbaa !23
  %16 = add nsw i32 %15, %13
  %17 = getelementptr inbounds nuw i8, ptr %2, i64 112
  %18 = load i32, ptr %17, align 8, !tbaa !27
  %19 = getelementptr inbounds nuw i8, ptr %2, i64 264
  %20 = load i32, ptr %19, align 8, !tbaa !28
  %21 = add nsw i32 %20, %18
  %22 = getelementptr inbounds nuw i8, ptr %2, i64 8
  %23 = load ptr, ptr %22, align 8, !tbaa !29
  %24 = icmp ne ptr %23, null
  %25 = getelementptr inbounds nuw i8, ptr %2, i64 16
  %26 = load ptr, ptr %25, align 8, !tbaa !30
  %27 = icmp ne ptr %26, null
  tail call void @_Z30gmx_ana_pos_reserve_for_appendP13gmx_ana_pos_tiibb(ptr noundef %11, i32 noundef %16, i32 noundef %21, i1 noundef zeroext %24, i1 noundef zeroext %27)
  %28 = load ptr, ptr %8, align 8, !tbaa !17
  tail call void @_Z22gmx_ana_pos_empty_initP13gmx_ana_pos_t(ptr noundef %28)
  %29 = load i32, ptr %12, align 8, !tbaa !23
  %30 = icmp sgt i32 %29, 0
  br i1 %30, label %.lr.ph, label %.preheader

.preheader:                                       ; preds = %.lr.ph, %3
  %31 = load i32, ptr %14, align 8, !tbaa !23
  %32 = icmp sgt i32 %31, 0
  br i1 %32, label %.lr.ph17, label %._crit_edge

.lr.ph17:                                         ; preds = %.preheader
  %33 = getelementptr inbounds nuw i8, ptr %2, i64 152
  br label %38

.lr.ph:                                           ; preds = %3, %.lr.ph
  %.015 = phi i32 [ %35, %.lr.ph ], [ 0, %3 ]
  %34 = load ptr, ptr %8, align 8, !tbaa !17
  tail call void @_Z23gmx_ana_pos_append_initP13gmx_ana_pos_tS0_i(ptr noundef %34, ptr noundef nonnull %2, i32 noundef %.015)
  %35 = add nuw nsw i32 %.015, 1
  %36 = load i32, ptr %12, align 8, !tbaa !23
  %37 = icmp slt i32 %35, %36
  br i1 %37, label %.lr.ph, label %.preheader, !llvm.loop !69

38:                                               ; preds = %.lr.ph17, %38
  %.116 = phi i32 [ 0, %.lr.ph17 ], [ %40, %38 ]
  %39 = load ptr, ptr %8, align 8, !tbaa !17
  tail call void @_Z23gmx_ana_pos_append_initP13gmx_ana_pos_tS0_i(ptr noundef %39, ptr noundef nonnull %33, i32 noundef %.116)
  %40 = add nuw nsw i32 %.116, 1
  %41 = load i32, ptr %14, align 8, !tbaa !23
  %42 = icmp slt i32 %40, %41
  br i1 %42, label %38, label %._crit_edge, !llvm.loop !70

._crit_edge:                                      ; preds = %38, %.preheader
  ret void
}